target datalayout = "e-m:e-p270:32:32-p271:32:32-p272:64:64-i64:64-i128:128-f80:128-n8:16:32:64-S128"
target triple = "x86_64-pc-linux-gnu"

@hf_s7comm_param_item = internal global i32 0, align 4
@hf_s7comm_varstat_req_memory_area = internal global i32 0, align 4
@hf_s7comm_varstat_req_repetition_factor = internal global i32 0, align 4
@hf_s7comm_varstat_req_db_number = internal global i32 0, align 4
@hf_s7comm_varstat_req_startaddress = internal global i32 0, align 4
@hf_s7comm_varstat_req_bitpos = internal global i32 0, align 4
@ett_s7comm_param_item = internal global i32 0, align 4
@.str.2371 = private unnamed_addr constant [9 x i8] c" [%d]%s:\00", align 1
@.str.2372 = private unnamed_addr constant [10 x i8] c" (M%d.%d)\00", align 1
@.str.2373 = private unnamed_addr constant [17 x i8] c" (M%d.0 BYTE %d)\00", align 1
@.str.2374 = private unnamed_addr constant [17 x i8] c" (M%d.0 WORD %d)\00", align 1
@.str.2375 = private unnamed_addr constant [18 x i8] c" (M%d.0 DWORD %d)\00", align 1
@.str.2376 = private unnamed_addr constant [10 x i8] c" (I%d.%d)\00", align 1
@.str.2377 = private unnamed_addr constant [17 x i8] c" (I%d.0 BYTE %d)\00", align 1
@.str.2378 = private unnamed_addr constant [17 x i8] c" (I%d.0 WORD %d)\00", align 1
@.str.2379 = private unnamed_addr constant [18 x i8] c" (I%d.0 DWORD %d)\00", align 1
@.str.2380 = private unnamed_addr constant [10 x i8] c" (Q%d.%d)\00", align 1
@.str.2381 = private unnamed_addr constant [17 x i8] c" (Q%d.0 BYTE %d)\00", align 1
@.str.2382 = private unnamed_addr constant [17 x i8] c" (Q%d.0 WORD %d)\00", align 1
@.str.2383 = private unnamed_addr constant [18 x i8] c" (Q%d.0 DWORD %d)\00", align 1
@.str.2384 = private unnamed_addr constant [18 x i8] c" (PI%d.0 BYTE %d)\00", align 1
@.str.2385 = private unnamed_addr constant [18 x i8] c" (PI%d.0 WORD %d)\00", align 1
@.str.2386 = private unnamed_addr constant [19 x i8] c" (PI%d.0 DWORD %d)\00", align 1
@.str.2387 = private unnamed_addr constant [17 x i8] c" (DB%d.DBX%d.%d)\00", align 1
@.str.2388 = private unnamed_addr constant [24 x i8] c" (DB%d.DBX%d.0 BYTE %d)\00", align 1
@.str.2389 = private unnamed_addr constant [24 x i8] c" (DB%d.DBX%d.0 WORD %d)\00", align 1
@.str.2390 = private unnamed_addr constant [25 x i8] c" (DB%d.DBX%d.0 DWORD %d)\00", align 1
@.str.2391 = private unnamed_addr constant [12 x i8] c" (T %d..%d)\00", align 1
@.str.2392 = private unnamed_addr constant [8 x i8] c" (T %d)\00", align 1
@.str.2393 = private unnamed_addr constant [12 x i8] c" (C %d..%d)\00", align 1
@.str.2394 = private unnamed_addr constant [8 x i8] c" (C %d)\00", align 1

; Function Attrs: null_pointer_is_valid sspstrong uwtable
define internal i32 @s7comm_decode_ud_tis_item_address(ptr noundef %0, i32 noundef %1, ptr noundef %2, i16 noundef zeroext %3, ptr noundef %4) #0 {
  %6 = alloca ptr, align 8
  %7 = alloca i32, align 4
  %8 = alloca ptr, align 8
  %9 = alloca i16, align 2
  %10 = alloca ptr, align 8
  %11 = alloca i32, align 4
  %12 = alloca i16, align 2
  %13 = alloca i16, align 2
  %14 = alloca i16, align 2
  %15 = alloca i8, align 1
  %16 = alloca ptr, align 8
  store ptr %0, ptr %6, align 8
  store i32 %1, ptr %7, align 4
  store ptr %2, ptr %8, align 8
  store i16 %3, ptr %9, align 2
  store ptr %4, ptr %10, align 8
  call void @llvm.lifetime.start.p0(i64 4, ptr %11) #8
  store i32 0, ptr %11, align 4
  call void @llvm.lifetime.start.p0(i64 2, ptr %12) #8
  store i16 0, ptr %12, align 2
  call void @llvm.lifetime.start.p0(i64 2, ptr %13) #8
  store i16 0, ptr %13, align 2
  call void @llvm.lifetime.start.p0(i64 2, ptr %14) #8
  store i16 0, ptr %14, align 2
  call void @llvm.lifetime.start.p0(i64 1, ptr %15) #8
  store i8 0, ptr %15, align 1
  call void @llvm.lifetime.start.p0(i64 8, ptr %16) #8
  store ptr null, ptr %16, align 8
  %17 = load ptr, ptr %8, align 8
  %18 = load i32, ptr @hf_s7comm_param_item, align 4
  %19 = load ptr, ptr %6, align 8
  %20 = load i32, ptr %7, align 4
  %21 = call ptr @proto_tree_add_item(ptr noundef %17, i32 noundef %18, ptr noundef %19, i32 noundef %20, i32 noundef 6, i32 noundef 0)
  store ptr %21, ptr %16, align 8
  %22 = load ptr, ptr %16, align 8
  %23 = load i32, ptr @ett_s7comm_param_item, align 4
  %24 = call ptr @proto_item_add_subtree(ptr noundef %22, i32 noundef %23)
  store ptr %24, ptr %8, align 8
  %25 = load ptr, ptr %16, align 8
  %26 = load i16, ptr %9, align 2
  %27 = zext i16 %26 to i32
  %28 = add i32 %27, 1
  %29 = load ptr, ptr %10, align 8
  call void (ptr, ptr, ...) @proto_item_append_text(ptr noundef %25, ptr noundef @.str.2371, i32 noundef %28, ptr noundef %29)
  %30 = load ptr, ptr %6, align 8
  %31 = load i32, ptr %7, align 4
  %32 = call zeroext i8 @tvb_get_uint8(ptr noundef %30, i32 noundef %31)
  store i8 %32, ptr %15, align 1
  %33 = load ptr, ptr %8, align 8
  %34 = load i32, ptr @hf_s7comm_varstat_req_memory_area, align 4
  %35 = load ptr, ptr %6, align 8
  %36 = load i32, ptr %7, align 4
  %37 = call ptr @proto_tree_add_item(ptr noundef %33, i32 noundef %34, ptr noundef %35, i32 noundef %36, i32 noundef 1, i32 noundef 0)
  %38 = load i32, ptr %7, align 4
  %39 = add i32 %38, 1
  store i32 %39, ptr %7, align 4
  %40 = load i8, ptr %15, align 1
  %41 = zext i8 %40 to i32
  %42 = and i32 %41, 15
  %43 = icmp ne i32 %42, 0
  br i1 %43, label %44, label %58

44:                                               ; preds = %5
  %45 = load ptr, ptr %6, align 8
  %46 = load i32, ptr %7, align 4
  %47 = call zeroext i8 @tvb_get_uint8(ptr noundef %45, i32 noundef %46)
  %48 = zext i8 %47 to i16
  store i16 %48, ptr %12, align 2
  %49 = load ptr, ptr %8, align 8
  %50 = load i32, ptr @hf_s7comm_varstat_req_repetition_factor, align 4
  %51 = load ptr, ptr %6, align 8
  %52 = load i32, ptr %7, align 4
  %53 = load i16, ptr %12, align 2
  %54 = zext i16 %53 to i32
  %55 = call ptr @proto_tree_add_uint(ptr noundef %49, i32 noundef %50, ptr noundef %51, i32 noundef %52, i32 noundef 1, i32 noundef %54)
  %56 = load i32, ptr %7, align 4
  %57 = add i32 %56, 1
  store i32 %57, ptr %7, align 4
  br label %72

58:                                               ; preds = %5
  %59 = load ptr, ptr %6, align 8
  %60 = load i32, ptr %7, align 4
  %61 = call zeroext i8 @tvb_get_uint8(ptr noundef %59, i32 noundef %60)
  %62 = zext i8 %61 to i16
  store i16 %62, ptr %13, align 2
  %63 = load ptr, ptr %8, align 8
  %64 = load i32, ptr @hf_s7comm_varstat_req_bitpos, align 4
  %65 = load ptr, ptr %6, align 8
  %66 = load i32, ptr %7, align 4
  %67 = load i16, ptr %13, align 2
  %68 = zext i16 %67 to i32
  %69 = call ptr @proto_tree_add_uint(ptr noundef %63, i32 noundef %64, ptr noundef %65, i32 noundef %66, i32 noundef 1, i32 noundef %68)
  %70 = load i32, ptr %7, align 4
  %71 = add i32 %70, 1
  store i32 %71, ptr %7, align 4
  br label %72

72:                                               ; preds = %58, %44
  %73 = load ptr, ptr %6, align 8
  %74 = load i32, ptr %7, align 4
  %75 = call zeroext i16 @tvb_get_ntohs(ptr noundef %73, i32 noundef %74)
  store i16 %75, ptr %14, align 2
  %76 = load ptr, ptr %8, align 8
  %77 = load i32, ptr @hf_s7comm_varstat_req_db_number, align 4
  %78 = load ptr, ptr %6, align 8
  %79 = load i32, ptr %7, align 4
  %80 = load i16, ptr %14, align 2
  %81 = zext i16 %80 to i32
  %82 = call ptr @proto_tree_add_uint(ptr noundef %76, i32 noundef %77, ptr noundef %78, i32 noundef %79, i32 noundef 2, i32 noundef %81)
  %83 = load i32, ptr %7, align 4
  %84 = add i32 %83, 2
  store i32 %84, ptr %7, align 4
  %85 = load ptr, ptr %6, align 8
  %86 = load i32, ptr %7, align 4
  %87 = call zeroext i16 @tvb_get_ntohs(ptr noundef %85, i32 noundef %86)
  %88 = zext i16 %87 to i32
  store i32 %88, ptr %11, align 4
  %89 = load ptr, ptr %8, align 8
  %90 = load i32, ptr @hf_s7comm_varstat_req_startaddress, align 4
  %91 = load ptr, ptr %6, align 8
  %92 = load i32, ptr %7, align 4
  %93 = load i32, ptr %11, align 4
  %94 = call ptr @proto_tree_add_uint(ptr noundef %89, i32 noundef %90, ptr noundef %91, i32 noundef %92, i32 noundef 2, i32 noundef %93)
  %95 = load i32, ptr %7, align 4
  %96 = add i32 %95, 2
  store i32 %96, ptr %7, align 4
  %97 = load i8, ptr %15, align 1
  %98 = zext i8 %97 to i32
  switch i32 %98, label %234 [
    i32 0, label %99
    i32 1, label %104
    i32 2, label %109
    i32 3, label %114
    i32 16, label %119
    i32 17, label %124
    i32 18, label %129
    i32 19, label %134
    i32 32, label %139
    i32 33, label %144
    i32 34, label %149
    i32 35, label %154
    i32 49, label %159
    i32 50, label %164
    i32 51, label %169
    i32 112, label %174
    i32 113, label %181
    i32 114, label %188
    i32 115, label %195
    i32 84, label %202
    i32 100, label %218
  ]

99:                                               ; preds = %72
  %100 = load ptr, ptr %8, align 8
  %101 = load i32, ptr %11, align 4
  %102 = load i16, ptr %13, align 2
  %103 = zext i16 %102 to i32
  call void (ptr, ptr, ...) @proto_item_append_text(ptr noundef %100, ptr noundef @.str.2372, i32 noundef %101, i32 noundef %103)
  br label %234

104:                                              ; preds = %72
  %105 = load ptr, ptr %8, align 8
  %106 = load i32, ptr %11, align 4
  %107 = load i16, ptr %12, align 2
  %108 = zext i16 %107 to i32
  call void (ptr, ptr, ...) @proto_item_append_text(ptr noundef %105, ptr noundef @.str.2373, i32 noundef %106, i32 noundef %108)
  br label %234

109:                                              ; preds = %72
  %110 = load ptr, ptr %8, align 8
  %111 = load i32, ptr %11, align 4
  %112 = load i16, ptr %12, align 2
  %113 = zext i16 %112 to i32
  call void (ptr, ptr, ...) @proto_item_append_text(ptr noundef %110, ptr noundef @.str.2374, i32 noundef %111, i32 noundef %113)
  br label %234

114:                                              ; preds = %72
  %115 = load ptr, ptr %8, align 8
  %116 = load i32, ptr %11, align 4
  %117 = load i16, ptr %12, align 2
  %118 = zext i16 %117 to i32
  call void (ptr, ptr, ...) @proto_item_append_text(ptr noundef %115, ptr noundef @.str.2375, i32 noundef %116, i32 noundef %118)
  br label %234

119:                                              ; preds = %72
  %120 = load ptr, ptr %8, align 8
  %121 = load i32, ptr %11, align 4
  %122 = load i16, ptr %13, align 2
  %123 = zext i16 %122 to i32
  call void (ptr, ptr, ...) @proto_item_append_text(ptr noundef %120, ptr noundef @.str.2376, i32 noundef %121, i32 noundef %123)
  br label %234

124:                                              ; preds = %72
  %125 = load ptr, ptr %8, align 8
  %126 = load i32, ptr %11, align 4
  %127 = load i16, ptr %12, align 2
  %128 = zext i16 %127 to i32
  call void (ptr, ptr, ...) @proto_item_append_text(ptr noundef %125, ptr noundef @.str.2377, i32 noundef %126, i32 noundef %128)
  br label %234

129:                                              ; preds = %72
  %130 = load ptr, ptr %8, align 8
  %131 = load i32, ptr %11, align 4
  %132 = load i16, ptr %12, align 2
  %133 = zext i16 %132 to i32
  call void (ptr, ptr, ...) @proto_item_append_text(ptr noundef %130, ptr noundef @.str.2378, i32 noundef %131, i32 noundef %133)
  br label %234

134:                                              ; preds = %72
  %135 = load ptr, ptr %8, align 8
  %136 = load i32, ptr %11, align 4
  %137 = load i16, ptr %12, align 2
  %138 = zext i16 %137 to i32
  call void (ptr, ptr, ...) @proto_item_append_text(ptr noundef %135, ptr noundef @.str.2379, i32 noundef %136, i32 noundef %138)
  br label %234

139:                                              ; preds = %72
  %140 = load ptr, ptr %8, align 8
  %141 = load i32, ptr %11, align 4
  %142 = load i16, ptr %13, align 2
  %143 = zext i16 %142 to i32
  call void (ptr, ptr, ...) @proto_item_append_text(ptr noundef %140, ptr noundef @.str.2380, i32 noundef %141, i32 noundef %143)
  br label %234

144:                                              ; preds = %72
  %145 = load ptr, ptr %8, align 8
  %146 = load i32, ptr %11, align 4
  %147 = load i16, ptr %12, align 2
  %148 = zext i16 %147 to i32
  call void (ptr, ptr, ...) @proto_item_append_text(ptr noundef %145, ptr noundef @.str.2381, i32 noundef %146, i32 noundef %148)
  br label %234

149:                                              ; preds = %72
  %150 = load ptr, ptr %8, align 8
  %151 = load i32, ptr %11, align 4
  %152 = load i16, ptr %12, align 2
  %153 = zext i16 %152 to i32
  call void (ptr, ptr, ...) @proto_item_append_text(ptr noundef %150, ptr noundef @.str.2382, i32 noundef %151, i32 noundef %153)
  br label %234

154:                                              ; preds = %72
  %155 = load ptr, ptr %8, align 8
  %156 = load i32, ptr %11, align 4
  %157 = load i16, ptr %12, align 2
  %158 = zext i16 %157 to i32
  call void (ptr, ptr, ...) @proto_item_append_text(ptr noundef %155, ptr noundef @.str.2383, i32 noundef %156, i32 noundef %158)
  br label %234

159:                                              ; preds = %72
  %160 = load ptr, ptr %8, align 8
  %161 = load i32, ptr %11, align 4
  %162 = load i16, ptr %12, align 2
  %163 = zext i16 %162 to i32
  call void (ptr, ptr, ...) @proto_item_append_text(ptr noundef %160, ptr noundef @.str.2384, i32 noundef %161, i32 noundef %163)
  br label %234

164:                                              ; preds = %72
  %165 = load ptr, ptr %8, align 8
  %166 = load i32, ptr %11, align 4
  %167 = load i16, ptr %12, align 2
  %168 = zext i16 %167 to i32
  call void (ptr, ptr, ...) @proto_item_append_text(ptr noundef %165, ptr noundef @.str.2385, i32 noundef %166, i32 noundef %168)
  br label %234

169:                                              ; preds = %72
  %170 = load ptr, ptr %8, align 8
  %171 = load i32, ptr %11, align 4
  %172 = load i16, ptr %12, align 2
  %173 = zext i16 %172 to i32
  call void (ptr, ptr, ...) @proto_item_append_text(ptr noundef %170, ptr noundef @.str.2386, i32 noundef %171, i32 noundef %173)
  br label %234

174:                                              ; preds = %72
  %175 = load ptr, ptr %8, align 8
  %176 = load i16, ptr %14, align 2
  %177 = zext i16 %176 to i32
  %178 = load i32, ptr %11, align 4
  %179 = load i16, ptr %13, align 2
  %180 = zext i16 %179 to i32
  call void (ptr, ptr, ...) @proto_item_append_text(ptr noundef %175, ptr noundef @.str.2387, i32 noundef %177, i32 noundef %178, i32 noundef %180)
  br label %234

181:                                              ; preds = %72
  %182 = load ptr, ptr %8, align 8
  %183 = load i16, ptr %14, align 2
  %184 = zext i16 %183 to i32
  %185 = load i32, ptr %11, align 4
  %186 = load i16, ptr %12, align 2
  %187 = zext i16 %186 to i32
  call void (ptr, ptr, ...) @proto_item_append_text(ptr noundef %182, ptr noundef @.str.2388, i32 noundef %184, i32 noundef %185, i32 noundef %187)
  br label %234

188:                                              ; preds = %72
  %189 = load ptr, ptr %8, align 8
  %190 = load i16, ptr %14, align 2
  %191 = zext i16 %190 to i32
  %192 = load i32, ptr %11, align 4
  %193 = load i16, ptr %12, align 2
  %194 = zext i16 %193 to i32
  call void (ptr, ptr, ...) @proto_item_append_text(ptr noundef %189, ptr noundef @.str.2389, i32 noundef %191, i32 noundef %192, i32 noundef %194)
  br label %234

195:                                              ; preds = %72
  %196 = load ptr, ptr %8, align 8
  %197 = load i16, ptr %14, align 2
  %198 = zext i16 %197 to i32
  %199 = load i32, ptr %11, align 4
  %200 = load i16, ptr %12, align 2
  %201 = zext i16 %200 to i32
  call void (ptr, ptr, ...) @proto_item_append_text(ptr noundef %196, ptr noundef @.str.2390, i32 noundef %198, i32 noundef %199, i32 noundef %201)
  br label %234

202:                                              ; preds = %72
  %203 = load i16, ptr %12, align 2
  %204 = zext i16 %203 to i32
  %205 = icmp sgt i32 %204, 1
  br i1 %205, label %206, label %214

206:                                              ; preds = %202
  %207 = load ptr, ptr %8, align 8
  %208 = load i32, ptr %11, align 4
  %209 = load i32, ptr %11, align 4
  %210 = load i16, ptr %12, align 2
  %211 = zext i16 %210 to i32
  %212 = add i32 %209, %211
  %213 = sub i32 %212, 1
  call void (ptr, ptr, ...) @proto_item_append_text(ptr noundef %207, ptr noundef @.str.2391, i32 noundef %208, i32 noundef %213)
  br label %217

214:                                              ; preds = %202
  %215 = load ptr, ptr %8, align 8
  %216 = load i32, ptr %11, align 4
  call void (ptr, ptr, ...) @proto_item_append_text(ptr noundef %215, ptr noundef @.str.2392, i32 noundef %216)
  br label %217

217:                                              ; preds = %214, %206
  br label %234

218:                                              ; preds = %72
  %219 = load i16, ptr %12, align 2
  %220 = zext i16 %219 to i32
  %221 = icmp sgt i32 %220, 1
  br i1 %221, label %222, label %230

222:                                              ; preds = %218
  %223 = load ptr, ptr %8, align 8
  %224 = load i32, ptr %11, align 4
  %225 = load i32, ptr %11, align 4
  %226 = load i16, ptr %12, align 2
  %227 = zext i16 %226 to i32
  %228 = add i32 %225, %227
  %229 = sub i32 %228, 1
  call void (ptr, ptr, ...) @proto_item_append_text(ptr noundef %223, ptr noundef @.str.2393, i32 noundef %224, i32 noundef %229)
  br label %233

230:                                              ; preds = %218
  %231 = load ptr, ptr %8, align 8
  %232 = load i32, ptr %11, align 4
  call void (ptr, ptr, ...) @proto_item_append_text(ptr noundef %231, ptr noundef @.str.2394, i32 noundef %232)
  br label %233

233:                                              ; preds = %230, %222
  br label %234

234:                                              ; preds = %72, %233, %217, %195, %188, %181, %174, %169, %164, %159, %154, %149, %144, %139, %134, %129, %124, %119, %114, %109, %104, %99
  %235 = load i32, ptr %7, align 4
  call void @llvm.lifetime.end.p0(i64 8, ptr %16) #8
  call void @llvm.lifetime.end.p0(i64 1, ptr %15) #8
  call void @llvm.lifetime.end.p0(i64 2, ptr %14) #8
  call void @llvm.lifetime.end.p0(i64 2, ptr %13) #8
  call void @llvm.lifetime.end.p0(i64 2, ptr %12) #8
  call void @llvm.lifetime.end.p0(i64 4, ptr %11) #8
  ret i32 %235
}