; Function Attrs: null_pointer_is_valid sspstrong uwtable
define internal fastcc noundef i32 @s7comm_decode_ud_tis_item_address(ptr noundef %0, i32 noundef %1, ptr noundef %2, i16 noundef zeroext %3, ptr noundef %4) unnamed_addr #0 {
  %6 = load i32, ptr @hf_s7comm_param_item, align 4
  %7 = tail call ptr @proto_tree_add_item(ptr noundef %2, i32 noundef %6, ptr noundef %0, i32 noundef %1, i32 noundef 6, i32 noundef 0)
  %8 = load i32, ptr @ett_s7comm_param_item, align 4
  %9 = tail call ptr @proto_item_add_subtree(ptr noundef %7, i32 noundef %8)
  %10 = zext i16 %3 to i32
  %11 = add nuw nsw i32 %10, 1
  tail call void (ptr, ptr, ...) @proto_item_append_text(ptr noundef %7, ptr noundef nonnull @.str.2371, i32 noundef %11, ptr noundef %4)
  %12 = tail call zeroext i8 @tvb_get_uint8(ptr noundef %0, i32 noundef %1)
  %13 = load i32, ptr @hf_s7comm_varstat_req_memory_area, align 4
  %14 = tail call ptr @proto_tree_add_item(ptr noundef %9, i32 noundef %13, ptr noundef %0, i32 noundef %1, i32 noundef 1, i32 noundef 0)
  %15 = add i32 %1, 1
  %16 = and i8 %12, 15
  %.not = icmp eq i8 %16, 0
  %17 = tail call zeroext i8 @tvb_get_uint8(ptr noundef %0, i32 noundef %15)
  %18 = zext i8 %17 to i32
  %. = select i1 %.not, i32 0, i32 %18
  %.122 = select i1 %.not, i32 %18, i32 0
  %hf_s7comm_varstat_req_bitpos.val = load i32, ptr @hf_s7comm_varstat_req_bitpos, align 4
  %hf_s7comm_varstat_req_repetition_factor.val = load i32, ptr @hf_s7comm_varstat_req_repetition_factor, align 4
  %19 = select i1 %.not, i32 %hf_s7comm_varstat_req_bitpos.val, i32 %hf_s7comm_varstat_req_repetition_factor.val
  %20 = tail call ptr @proto_tree_add_uint(ptr noundef %9, i32 noundef %19, ptr noundef %0, i32 noundef %15, i32 noundef 1, i32 noundef %18)
  %.0 = add i32 %1, 2
  %21 = tail call zeroext i16 @tvb_get_ntohs(ptr noundef %0, i32 noundef %.0)
  %22 = load i32, ptr @hf_s7comm_varstat_req_db_number, align 4
  %23 = zext i16 %21 to i32
  %24 = tail call ptr @proto_tree_add_uint(ptr noundef %9, i32 noundef %22, ptr noundef %0, i32 noundef %.0, i32 noundef 2, i32 noundef %23)
  %25 = add i32 %1, 4
  %26 = tail call zeroext i16 @tvb_get_ntohs(ptr noundef %0, i32 noundef %25)
  %27 = zext i16 %26 to i32
  %28 = load i32, ptr @hf_s7comm_varstat_req_startaddress, align 4
  %29 = tail call ptr @proto_tree_add_uint(ptr noundef %9, i32 noundef %28, ptr noundef %0, i32 noundef %25, i32 noundef 2, i32 noundef %27)
  switch i8 %12, label %61 [
    i8 0, label %30
    i8 1, label %31
    i8 2, label %32
    i8 3, label %33
    i8 16, label %34
    i8 17, label %35
    i8 18, label %36
    i8 19, label %37
    i8 32, label %38
    i8 33, label %39
    i8 34, label %40
    i8 35, label %41
    i8 49, label %42
    i8 50, label %43
    i8 51, label %44
    i8 112, label %45
    i8 113, label %46
    i8 114, label %47
    i8 115, label %48
    i8 84, label %49
    i8 100, label %55
  ]

30:                                               ; preds = %5
  tail call void (ptr, ptr, ...) @proto_item_append_text(ptr noundef %9, ptr noundef nonnull @.str.2372, i32 noundef %27, i32 noundef %.122)
  br label %61

31:                                               ; preds = %5
  tail call void (ptr, ptr, ...) @proto_item_append_text(ptr noundef %9, ptr noundef nonnull @.str.2373, i32 noundef %27, i32 noundef %.)
  br label %61

32:                                               ; preds = %5
  tail call void (ptr, ptr, ...) @proto_item_append_text(ptr noundef %9, ptr noundef nonnull @.str.2374, i32 noundef %27, i32 noundef %.)
  br label %61

33:                                               ; preds = %5
  tail call void (ptr, ptr, ...) @proto_item_append_text(ptr noundef %9, ptr noundef nonnull @.str.2375, i32 noundef %27, i32 noundef %.)
  br label %61

34:                                               ; preds = %5
  tail call void (ptr, ptr, ...) @proto_item_append_text(ptr noundef %9, ptr noundef nonnull @.str.2376, i32 noundef %27, i32 noundef %.122)
  br label %61

35:                                               ; preds = %5
  tail call void (ptr, ptr, ...) @proto_item_append_text(ptr noundef %9, ptr noundef nonnull @.str.2377, i32 noundef %27, i32 noundef %.)
  br label %61

36:                                               ; preds = %5
  tail call void (ptr, ptr, ...) @proto_item_append_text(ptr noundef %9, ptr noundef nonnull @.str.2378, i32 noundef %27, i32 noundef %.)
  br label %61

37:                                               ; preds = %5
  tail call void (ptr, ptr, ...) @proto_item_append_text(ptr noundef %9, ptr noundef nonnull @.str.2379, i32 noundef %27, i32 noundef %.)
  br label %61

38:                                               ; preds = %5
  tail call void (ptr, ptr, ...) @proto_item_append_text(ptr noundef %9, ptr noundef nonnull @.str.2380, i32 noundef %27, i32 noundef %.122)
  br label %61

39:                                               ; preds = %5
  tail call void (ptr, ptr, ...) @proto_item_append_text(ptr noundef %9, ptr noundef nonnull @.str.2381, i32 noundef %27, i32 noundef %.)
  br label %61

40:                                               ; preds = %5
  tail call void (ptr, ptr, ...) @proto_item_append_text(ptr noundef %9, ptr noundef nonnull @.str.2382, i32 noundef %27, i32 noundef %.)
  br label %61

41:                                               ; preds = %5
  tail call void (ptr, ptr, ...) @proto_item_append_text(ptr noundef %9, ptr noundef nonnull @.str.2383, i32 noundef %27, i32 noundef %.)
  br label %61

42:                                               ; preds = %5
  tail call void (ptr, ptr, ...) @proto_item_append_text(ptr noundef %9, ptr noundef nonnull @.str.2384, i32 noundef %27, i32 noundef %.)
  br label %61

43:                                               ; preds = %5
  tail call void (ptr, ptr, ...) @proto_item_append_text(ptr noundef %9, ptr noundef nonnull @.str.2385, i32 noundef %27, i32 noundef %.)
  br label %61

44:                                               ; preds = %5
  tail call void (ptr, ptr, ...) @proto_item_append_text(ptr noundef %9, ptr noundef nonnull @.str.2386, i32 noundef %27, i32 noundef %.)
  br label %61

45:                                               ; preds = %5
  tail call void (ptr, ptr, ...) @proto_item_append_text(ptr noundef %9, ptr noundef nonnull @.str.2387, i32 noundef %23, i32 noundef %27, i32 noundef %.122)
  br label %61

46:                                               ; preds = %5
  tail call void (ptr, ptr, ...) @proto_item_append_text(ptr noundef %9, ptr noundef nonnull @.str.2388, i32 noundef %23, i32 noundef %27, i32 noundef %.)
  br label %61

47:                                               ; preds = %5
  tail call void (ptr, ptr, ...) @proto_item_append_text(ptr noundef %9, ptr noundef nonnull @.str.2389, i32 noundef %23, i32 noundef %27, i32 noundef %.)
  br label %61

48:                                               ; preds = %5
  tail call void (ptr, ptr, ...) @proto_item_append_text(ptr noundef %9, ptr noundef nonnull @.str.2390, i32 noundef %23, i32 noundef %27, i32 noundef %.)
  br label %61

49:                                               ; preds = %5
  %50 = icmp samesign ugt i32 %., 1
  br i1 %50, label %51, label %54

51:                                               ; preds = %49
  %52 = add nsw i32 %., -1
  %53 = add nuw nsw i32 %52, %27
  tail call void (ptr, ptr, ...) @proto_item_append_text(ptr noundef %9, ptr noundef nonnull @.str.2391, i32 noundef %27, i32 noundef %53)
  br label %61

54:                                               ; preds = %49
  tail call void (ptr, ptr, ...) @proto_item_append_text(ptr noundef %9, ptr noundef nonnull @.str.2392, i32 noundef %27)
  br label %61

55:                                               ; preds = %5
  %56 = icmp samesign ugt i32 %., 1
  br i1 %56, label %57, label %60

57:                                               ; preds = %55
  %58 = add nsw i32 %., -1
  %59 = add nuw nsw i32 %58, %27
  tail call void (ptr, ptr, ...) @proto_item_append_text(ptr noundef %9, ptr noundef nonnull @.str.2393, i32 noundef %27, i32 noundef %59)
  br label %61

60:                                               ; preds = %55
  tail call void (ptr, ptr, ...) @proto_item_append_text(ptr noundef %9, ptr noundef nonnull @.str.2394, i32 noundef %27)
  br label %61

61:                                               ; preds = %57, %60, %51, %54, %48, %47, %46, %45, %44, %43, %42, %41, %40, %39, %38, %37, %36, %35, %34, %33, %32, %31, %30, %5
  %62 = add i32 %1, 6
  ret i32 %62
}